; Function Attrs: mustprogress nofree norecurse nosync nounwind willreturn memory(argmem: write) uwtable
define hidden void @mbedtls_ssl_conf_session_cache(ptr noundef writeonly captures(none) initializes((72, 96)) %0, ptr noundef %1, ptr noundef %2, ptr noundef %3) local_unnamed_addr #0 {
  %5 = getelementptr inbounds nuw i8, ptr %0, i64 88
  store ptr %1, ptr %5, align 8, !tbaa !149
  %6 = getelementptr inbounds nuw i8, ptr %0, i64 72
  store ptr %2, ptr %6, align 8, !tbaa !150
  %7 = getelementptr inbounds nuw i8, ptr %0, i64 80
  store ptr %3, ptr %7, align 8, !tbaa !151
  ret void
}